; Function Attrs: mustprogress nounwind uwtable
define internal void @_ZN5folly11compression4zlib12_GLOBAL__N_115ZlibStreamCodecD2Ev(ptr noundef nonnull align 8 dereferenceable(320) %0) unnamed_addr #10 align 2 personality ptr @__gxx_personality_v0 {
  %2 = getelementptr inbounds nuw i8, ptr %0, i64 184
  %3 = load i8, ptr %2, align 8, !tbaa !56, !range !57, !noundef !58
  %4 = trunc nuw i8 %3 to i1
  br i1 %4, label %5, label %9

5:                                                ; preds = %1
  %6 = getelementptr inbounds nuw i8, ptr %0, i64 72
  %7 = invoke i32 @deflateEnd(ptr noundef nonnull %6)
          to label %8 unwind label %18

8:                                                ; preds = %5
  store i8 0, ptr %2, align 8, !tbaa !35
  br label %9

9:                                                ; preds = %8, %1
  %10 = getelementptr inbounds nuw i8, ptr %0, i64 304
  %11 = load i8, ptr %10, align 8, !tbaa !56, !range !57, !noundef !58
  %12 = trunc nuw i8 %11 to i1
  br i1 %12, label %13, label %17

13:                                               ; preds = %9
  %14 = getelementptr inbounds nuw i8, ptr %0, i64 192
  %15 = invoke i32 @inflateEnd(ptr noundef nonnull %14)
          to label %16 unwind label %18

16:                                               ; preds = %13
  store i8 0, ptr %10, align 8, !tbaa !35
  br label %17

17:                                               ; preds = %16, %9
  ret void

18:                                               ; preds = %13, %5
  %19 = landingpad { ptr, i32 }
          catch ptr null
  %20 = extractvalue { ptr, i32 } %19, 0
  tail call void @__clang_call_terminate(ptr %20) #28
  unreachable
}